; ModuleID = '25/434.cpp'
source_filename = "25/434.cpp"
target datalayout = "e-m:e-p270:32:32-p271:32:32-p272:64:64-i64:64-f80:128-n8:16:32:64-S128"
target triple = "x86_64-pc-linux-gnu"

%"class.std::ios_base::Init" = type { i8 }
%"class.std::basic_istream" = type { i32 (...)**, i64, %"class.std::basic_ios" }
%"class.std::basic_ios" = type { %"class.std::ios_base", %"class.std::basic_ostream"*, i8, i8, %"class.std::basic_streambuf"*, %"class.std::ctype"*, %"class.std::num_put"*, %"class.std::num_get"* }
%"class.std::ios_base" = type { i32 (...)**, i64, i64, i32, i32, i32, %"struct.std::ios_base::_Callback_list"*, %"struct.std::ios_base::_Words", [8 x %"struct.std::ios_base::_Words"], i32, %"struct.std::ios_base::_Words"*, %"class.std::locale" }
%"struct.std::ios_base::_Callback_list" = type { %"struct.std::ios_base::_Callback_list"*, void (i32, %"class.std::ios_base"*, i32)*, i32, i32 }
%"struct.std::ios_base::_Words" = type { i8*, i64 }
%"class.std::locale" = type { %"class.std::locale::_Impl"* }
%"class.std::locale::_Impl" = type { i32, %"class.std::locale::facet"**, i64, %"class.std::locale::facet"**, i8** }
%"class.std::locale::facet" = type <{ i32 (...)**, i32, [4 x i8] }>
%"class.std::basic_ostream" = type { i32 (...)**, %"class.std::basic_ios" }
%"class.std::basic_streambuf" = type { i32 (...)**, i8*, i8*, i8*, i8*, i8*, i8*, %"class.std::locale" }
%"class.std::ctype" = type <{ %"class.std::locale::facet.base", [4 x i8], %struct.__locale_struct*, i8, [7 x i8], i32*, i32*, i16*, i8, [256 x i8], [256 x i8], i8, [6 x i8] }>
%"class.std::locale::facet.base" = type <{ i32 (...)**, i32 }>
%struct.__locale_struct = type { [13 x %struct.__locale_data*], i16*, i32*, i32*, [13 x i8*] }
%struct.__locale_data = type opaque
%"class.std::num_put" = type { %"class.std::locale::facet.base", [4 x i8] }
%"class.std::num_get" = type { %"class.std::locale::facet.base", [4 x i8] }

@_ZStL8__ioinit = internal global %"class.std::ios_base::Init" zeroinitializer, align 1
@__dso_handle = external hidden global i8
@_ZSt3cin = external dso_local global %"class.std::basic_istream", align 8
@_ZSt4cout = external dso_local global %"class.std::basic_ostream", align 8
@llvm.global_ctors = appending global [1 x { i32, void ()*, i8* }] [{ i32, void ()*, i8* } { i32 65535, void ()* @_GLOBAL__sub_I_434.cpp, i8* null }]

; Function Attrs: noinline uwtable
define internal void @__cxx_global_var_init() #0 section ".text.startup" {
  call void @_ZNSt8ios_base4InitC1Ev(%"class.std::ios_base::Init"* @_ZStL8__ioinit)
  %1 = call i32 @__cxa_atexit(void (i8*)* bitcast (void (%"class.std::ios_base::Init"*)* @_ZNSt8ios_base4InitD1Ev to void (i8*)*), i8* getelementptr inbounds (%"class.std::ios_base::Init", %"class.std::ios_base::Init"* @_ZStL8__ioinit, i32 0, i32 0), i8* @__dso_handle) #3
  ret void
}

declare dso_local void @_ZNSt8ios_base4InitC1Ev(%"class.std::ios_base::Init"*) unnamed_addr #1

; Function Attrs: nounwind
declare dso_local void @_ZNSt8ios_base4InitD1Ev(%"class.std::ios_base::Init"*) unnamed_addr #2

; Function Attrs: nounwind
declare dso_local i32 @__cxa_atexit(void (i8*)*, i8*, i8*) #3

; Function Attrs: noinline norecurse uwtable
define dso_local i32 @main() #4 {
  %1 = alloca i32, align 4
  %2 = alloca i32, align 4
  %3 = alloca i32, align 4
  %4 = alloca i32, align 4
  %5 = alloca [100 x i32], align 16
  %6 = alloca [100 x i32], align 16
  store i32 0, i32* %1, align 4
  %7 = bitcast [100 x i32]* %5 to i8*
  call void @llvm.memset.p0i8.i64(i8* align 16 %7, i8 0, i64 400, i1 false)
  %8 = bitcast [100 x i32]* %6 to i8*
  call void @llvm.memset.p0i8.i64(i8* align 16 %8, i8 0, i64 400, i1 false)
  %9 = call dereferenceable(280) %"class.std::basic_istream"* @_ZNSirsERi(%"class.std::basic_istream"* @_ZSt3cin, i32* dereferenceable(4) %2)
  %10 = getelementptr inbounds [100 x i32], [100 x i32]* %5, i64 0, i64 0
  store i32 1, i32* %10, align 16
  store i32 0, i32* %3, align 4
  br label %11

11:                                               ; preds = %75, %0
  %12 = load i32, i32* %3, align 4
  %13 = load i32, i32* %2, align 4
  %14 = icmp slt i32 %12, %13
  br i1 %14, label %15, label %78

15:                                               ; preds = %11
  store i32 0, i32* %4, align 4
  br label %16

16:                                               ; preds = %71, %15
  %17 = load i32, i32* %4, align 4
  %18 = icmp slt i32 %17, 99
  br i1 %18, label %19, label %74

19:                                               ; preds = %16
  %20 = load i32, i32* %4, align 4
  %21 = sext i32 %20 to i64
  %22 = getelementptr inbounds [100 x i32], [100 x i32]* %5, i64 0, i64 %21
  %23 = load i32, i32* %22, align 4
  %24 = mul nsw i32 %23, 2
  %25 = load i32, i32* %4, align 4
  %26 = sext i32 %25 to i64
  %27 = getelementptr inbounds [100 x i32], [100 x i32]* %6, i64 0, i64 %26
  %28 = load i32, i32* %27, align 4
  %29 = add nsw i32 %24, %28
  %30 = icmp slt i32 %29, 10
  br i1 %30, label %31, label %48

31:                                               ; preds = %19
  %32 = load i32, i32* %4, align 4
  %33 = sext i32 %32 to i64
  %34 = getelementptr inbounds [100 x i32], [100 x i32]* %5, i64 0, i64 %33
  %35 = load i32, i32* %34, align 4
  %36 = mul nsw i32 %35, 2
  %37 = load i32, i32* %4, align 4
  %38 = sext i32 %37 to i64
  %39 = getelementptr inbounds [100 x i32], [100 x i32]* %6, i64 0, i64 %38
  %40 = load i32, i32* %39, align 4
  %41 = add nsw i32 %36, %40
  %42 = load i32, i32* %4, align 4
  %43 = sext i32 %42 to i64
  %44 = getelementptr inbounds [100 x i32], [100 x i32]* %5, i64 0, i64 %43
  store i32 %41, i32* %44, align 4
  %45 = load i32, i32* %4, align 4
  %46 = sext i32 %45 to i64
  %47 = getelementptr inbounds [100 x i32], [100 x i32]* %6, i64 0, i64 %46
  store i32 0, i32* %47, align 4
  br label %70

48:                                               ; preds = %19
  %49 = load i32, i32* %4, align 4
  %50 = sext i32 %49 to i64
  %51 = getelementptr inbounds [100 x i32], [100 x i32]* %5, i64 0, i64 %50
  %52 = load i32, i32* %51, align 4
  %53 = mul nsw i32 %52, 2
  %54 = load i32, i32* %4, align 4
  %55 = sext i32 %54 to i64
  %56 = getelementptr inbounds [100 x i32], [100 x i32]* %6, i64 0, i64 %55
  %57 = load i32, i32* %56, align 4
  %58 = add nsw i32 %53, %57
  %59 = sub nsw i32 %58, 10
  %60 = load i32, i32* %4, align 4
  %61 = sext i32 %60 to i64
  %62 = getelementptr inbounds [100 x i32], [100 x i32]* %5, i64 0, i64 %61
  store i32 %59, i32* %62, align 4
  %63 = load i32, i32* %4, align 4
  %64 = sext i32 %63 to i64
  %65 = getelementptr inbounds [100 x i32], [100 x i32]* %6, i64 0, i64 %64
  store i32 0, i32* %65, align 4
  %66 = load i32, i32* %4, align 4
  %67 = add nsw i32 %66, 1
  %68 = sext i32 %67 to i64
  %69 = getelementptr inbounds [100 x i32], [100 x i32]* %6, i64 0, i64 %68
  store i32 1, i32* %69, align 4
  br label %70

70:                                               ; preds = %48, %31
  br label %71

71:                                               ; preds = %70
  %72 = load i32, i32* %4, align 4
  %73 = add nsw i32 %72, 1
  store i32 %73, i32* %4, align 4
  br label %16

74:                                               ; preds = %16
  br label %75

75:                                               ; preds = %74
  %76 = load i32, i32* %3, align 4
  %77 = add nsw i32 %76, 1
  store i32 %77, i32* %3, align 4
  br label %11

78:                                               ; preds = %11
  store i32 99, i32* %3, align 4
  br label %79

79:                                               ; preds = %90, %78
  %80 = load i32, i32* %3, align 4
  %81 = icmp sge i32 %80, 0
  br i1 %81, label %82, label %93

82:                                               ; preds = %79
  %83 = load i32, i32* %3, align 4
  %84 = sext i32 %83 to i64
  %85 = getelementptr inbounds [100 x i32], [100 x i32]* %5, i64 0, i64 %84
  %86 = load i32, i32* %85, align 4
  %87 = icmp ne i32 %86, 0
  br i1 %87, label %88, label %89

88:                                               ; preds = %82
  br label %93

89:                                               ; preds = %82
  br label %90

90:                                               ; preds = %89
  %91 = load i32, i32* %3, align 4
  %92 = add nsw i32 %91, -1
  store i32 %92, i32* %3, align 4
  br label %79

93:                                               ; preds = %88, %79
  %94 = load i32, i32* %3, align 4
  store i32 %94, i32* %4, align 4
  br label %95

95:                                               ; preds = %104, %93
  %96 = load i32, i32* %4, align 4
  %97 = icmp sge i32 %96, 0
  br i1 %97, label %98, label %107

98:                                               ; preds = %95
  %99 = load i32, i32* %4, align 4
  %100 = sext i32 %99 to i64
  %101 = getelementptr inbounds [100 x i32], [100 x i32]* %5, i64 0, i64 %100
  %102 = load i32, i32* %101, align 4
  %103 = call dereferenceable(272) %"class.std::basic_ostream"* @_ZNSolsEi(%"class.std::basic_ostream"* @_ZSt4cout, i32 %102)
  br label %104

104:                                              ; preds = %98
  %105 = load i32, i32* %4, align 4
  %106 = add nsw i32 %105, -1
  store i32 %106, i32* %4, align 4
  br label %95

107:                                              ; preds = %95
  %108 = call dereferenceable(272) %"class.std::basic_ostream"* @_ZNSolsEPFRSoS_E(%"class.std::basic_ostream"* @_ZSt4cout, %"class.std::basic_ostream"* (%"class.std::basic_ostream"*)* @_ZSt4endlIcSt11char_traitsIcEERSt13basic_ostreamIT_T0_ES6_)
  ret i32 0
}

; Function Attrs: argmemonly nounwind willreturn
declare void @llvm.memset.p0i8.i64(i8* nocapture writeonly, i8, i64, i1 immarg) #5

declare dso_local dereferenceable(280) %"class.std::basic_istream"* @_ZNSirsERi(%"class.std::basic_istream"*, i32* dereferenceable(4)) #1

declare dso_local dereferenceable(272) %"class.std::basic_ostream"* @_ZNSolsEi(%"class.std::basic_ostream"*, i32) #1

declare dso_local dereferenceable(272) %"class.std::basic_ostream"* @_ZNSolsEPFRSoS_E(%"class.std::basic_ostream"*, %"class.std::basic_ostream"* (%"class.std::basic_ostream"*)*) #1

declare dso_local dereferenceable(272) %"class.std::basic_ostream"* @_ZSt4endlIcSt11char_traitsIcEERSt13basic_ostreamIT_T0_ES6_(%"class.std::basic_ostream"* dereferenceable(272)) #1

; Function Attrs: noinline uwtable
define internal void @_GLOBAL__sub_I_434.cpp() #0 section ".text.startup" {
  call void @__cxx_global_var_init()
  ret void
}


!llvm.module.flags = !{!0}
!llvm.ident = !{!1}

!0 = !{i32 1, !"wchar_size", i32 4}
!1 = !{!"clang version 10.0.0-4ubuntu1 "}
